target datalayout = "e-m:e-p270:32:32-p271:32:32-p272:64:64-i64:64-i128:128-f80:128-n8:16:32:64-S128"
target triple = "x86_64-pc-linux-gnu"

%struct.mi_page_s = type { i8, i8, i16, i16, %union.mi_page_flags_s, i8, ptr, ptr, i16, i8, i8, i64, ptr, i64, i64, ptr, ptr }
%union.mi_page_flags_s = type { i8 }
%struct.mi_segment_s = type { %struct.mi_memid_s, i8, i8, i64, ptr, ptr, ptr, i8, i8, i64, i64, i64, i64, i64, i64, ptr, ptr, i64, i64, i32, [1 x %struct.mi_page_s] }
%struct.mi_memid_s = type { %union.anon, i8, i8, i8, i32 }
%union.anon = type { %struct.mi_memid_os_info }
%struct.mi_memid_os_info = type { ptr, i64 }

; Function Attrs: nounwind uwtable
define internal i64 @mi_segment_raw_page_size(ptr noundef %0) #0 {
  %2 = alloca ptr, align 8
  store ptr %0, ptr %2, align 8, !tbaa !3
  %3 = load ptr, ptr %2, align 8, !tbaa !3
  %4 = getelementptr inbounds nuw %struct.mi_segment_s, ptr %3, i32 0, i32 19
  %5 = load i32, ptr %4, align 8, !tbaa !44
  %6 = icmp eq i32 %5, 3
  br i1 %6, label %7, label %11

7:                                                ; preds = %1
  %8 = load ptr, ptr %2, align 8, !tbaa !3
  %9 = getelementptr inbounds nuw %struct.mi_segment_s, ptr %8, i32 0, i32 3
  %10 = load i64, ptr %9, align 8, !tbaa !57
  br label %16

11:                                               ; preds = %1
  %12 = load ptr, ptr %2, align 8, !tbaa !3
  %13 = getelementptr inbounds nuw %struct.mi_segment_s, ptr %12, i32 0, i32 18
  %14 = load i64, ptr %13, align 8, !tbaa !94
  %15 = shl i64 1, %14
  br label %16

16:                                               ; preds = %11, %7
  %17 = phi i64 [ %10, %7 ], [ %15, %11 ]
  ret i64 %17
}

; Function Attrs: inlinehint nounwind uwtable
define internal i64 @_mi_align_up(i64 noundef %0, i64 noundef %1) #2 {
  %3 = alloca i64, align 8
  %4 = alloca i64, align 8
  %5 = alloca i64, align 8
  %6 = alloca i64, align 8
  %7 = alloca i32, align 4
  store i64 %0, ptr %4, align 8, !tbaa !14
  store i64 %1, ptr %5, align 8, !tbaa !14
  call void @llvm.lifetime.start.p0(i64 8, ptr %6) #7
  %8 = load i64, ptr %5, align 8, !tbaa !14
  %9 = sub i64 %8, 1
  store i64 %9, ptr %6, align 8, !tbaa !14
  %10 = load i64, ptr %5, align 8, !tbaa !14
  %11 = load i64, ptr %6, align 8, !tbaa !14
  %12 = and i64 %10, %11
  %13 = icmp eq i64 %12, 0
  br i1 %13, label %14, label %21

14:                                               ; preds = %2
  %15 = load i64, ptr %4, align 8, !tbaa !14
  %16 = load i64, ptr %6, align 8, !tbaa !14
  %17 = add i64 %15, %16
  %18 = load i64, ptr %6, align 8, !tbaa !14
  %19 = xor i64 %18, -1
  %20 = and i64 %17, %19
  store i64 %20, ptr %3, align 8
  store i32 1, ptr %7, align 4
  br label %29

21:                                               ; preds = %2
  %22 = load i64, ptr %4, align 8, !tbaa !14
  %23 = load i64, ptr %6, align 8, !tbaa !14
  %24 = add i64 %22, %23
  %25 = load i64, ptr %5, align 8, !tbaa !14
  %26 = udiv i64 %24, %25
  %27 = load i64, ptr %5, align 8, !tbaa !14
  %28 = mul i64 %26, %27
  store i64 %28, ptr %3, align 8
  store i32 1, ptr %7, align 4
  br label %29

29:                                               ; preds = %21, %14
  call void @llvm.lifetime.end.p0(i64 8, ptr %6) #7
  %30 = load i64, ptr %3, align 8
  ret i64 %30
}

; Function Attrs: nounwind uwtable
define internal ptr @mi_segment_raw_page_start(ptr noundef %0, ptr noundef %1, ptr noundef %2) #0 {
  %4 = alloca ptr, align 8
  %5 = alloca ptr, align 8
  %6 = alloca ptr, align 8
  %7 = alloca i64, align 8
  %8 = alloca ptr, align 8
  store ptr %0, ptr %4, align 8, !tbaa !3
  store ptr %1, ptr %5, align 8, !tbaa !8
  store ptr %2, ptr %6, align 8, !tbaa !10
  call void @llvm.lifetime.start.p0(i64 8, ptr %7) #7
  %9 = load ptr, ptr %4, align 8, !tbaa !3
  %10 = call i64 @mi_segment_raw_page_size(ptr noundef %9) #8
  store i64 %10, ptr %7, align 8, !tbaa !14
  call void @llvm.lifetime.start.p0(i64 8, ptr %8) #7
  %11 = load ptr, ptr %4, align 8, !tbaa !3
  %12 = load ptr, ptr %5, align 8, !tbaa !8
  %13 = getelementptr inbounds nuw %struct.mi_page_s, ptr %12, i32 0, i32 0
  %14 = load i8, ptr %13, align 8, !tbaa !16
  %15 = zext i8 %14 to i64
  %16 = load i64, ptr %7, align 8, !tbaa !14
  %17 = mul i64 %15, %16
  %18 = getelementptr inbounds nuw i8, ptr %11, i64 %17
  store ptr %18, ptr %8, align 8, !tbaa !12
  %19 = load ptr, ptr %5, align 8, !tbaa !8
  %20 = getelementptr inbounds nuw %struct.mi_page_s, ptr %19, i32 0, i32 0
  %21 = load i8, ptr %20, align 8, !tbaa !16
  %22 = zext i8 %21 to i32
  %23 = icmp eq i32 %22, 0
  br i1 %23, label %24, label %35

24:                                               ; preds = %3
  %25 = load ptr, ptr %4, align 8, !tbaa !3
  %26 = getelementptr inbounds nuw %struct.mi_segment_s, ptr %25, i32 0, i32 13
  %27 = load i64, ptr %26, align 8, !tbaa !20
  %28 = load ptr, ptr %8, align 8, !tbaa !12
  %29 = getelementptr inbounds nuw i8, ptr %28, i64 %27
  store ptr %29, ptr %8, align 8, !tbaa !12
  %30 = load ptr, ptr %4, align 8, !tbaa !3
  %31 = getelementptr inbounds nuw %struct.mi_segment_s, ptr %30, i32 0, i32 13
  %32 = load i64, ptr %31, align 8, !tbaa !20
  %33 = load i64, ptr %7, align 8, !tbaa !14
  %34 = sub i64 %33, %32
  store i64 %34, ptr %7, align 8, !tbaa !14
  br label %35

35:                                               ; preds = %24, %3
  %36 = load ptr, ptr %6, align 8, !tbaa !10
  %37 = icmp ne ptr %36, null
  br i1 %37, label %38, label %41

38:                                               ; preds = %35
  %39 = load i64, ptr %7, align 8, !tbaa !14
  %40 = load ptr, ptr %6, align 8, !tbaa !10
  store i64 %39, ptr %40, align 8, !tbaa !14
  br label %41

41:                                               ; preds = %38, %35
  %42 = load ptr, ptr %8, align 8, !tbaa !12
  call void @llvm.lifetime.end.p0(i64 8, ptr %8) #7
  call void @llvm.lifetime.end.p0(i64 8, ptr %7) #7
  ret ptr %42
}

; Function Attrs: nounwind uwtable
define internal ptr @mi_segment_huge_page_alloc(i64 noundef %0, i64 noundef %1, i32 noundef %2, ptr noundef %3) #0 {
  %5 = alloca ptr, align 8
  %6 = alloca i64, align 8
  %7 = alloca i64, align 8
  %8 = alloca i32, align 4
  %9 = alloca ptr, align 8
  %10 = alloca ptr, align 8
  %11 = alloca i32, align 4
  %12 = alloca ptr, align 8
  %13 = alloca i64, align 8
  %14 = alloca ptr, align 8
  %15 = alloca ptr, align 8
  %16 = alloca ptr, align 8
  %17 = alloca i64, align 8
  store i64 %0, ptr %6, align 8, !tbaa !14
  store i64 %1, ptr %7, align 8, !tbaa !14
  store i32 %2, ptr %8, align 4, !tbaa !83
  store ptr %3, ptr %9, align 8, !tbaa !28
  call void @llvm.lifetime.start.p0(i64 8, ptr %10) #7
  %18 = load i64, ptr %6, align 8, !tbaa !14
  %19 = load i64, ptr %7, align 8, !tbaa !14
  %20 = load i32, ptr %8, align 4, !tbaa !83
  %21 = load ptr, ptr %9, align 8, !tbaa !28
  %22 = call ptr @mi_segment_alloc(i64 noundef %18, i32 noundef 3, i64 noundef 23, i64 noundef %19, i32 noundef %20, ptr noundef %21) #8
  store ptr %22, ptr %10, align 8, !tbaa !3
  %23 = load ptr, ptr %10, align 8, !tbaa !3
  %24 = icmp eq ptr %23, null
  br i1 %24, label %25, label %26

25:                                               ; preds = %4
  store ptr null, ptr %5, align 8
  store i32 1, ptr %11, align 4
  br label %69

26:                                               ; preds = %4
  call void @llvm.lifetime.start.p0(i64 8, ptr %12) #7
  %27 = load ptr, ptr %10, align 8, !tbaa !3
  %28 = load ptr, ptr %9, align 8, !tbaa !28
  %29 = call ptr @mi_segment_find_free(ptr noundef %27, ptr noundef %28) #8
  store ptr %29, ptr %12, align 8, !tbaa !8
  call void @llvm.lifetime.start.p0(i64 8, ptr %13) #7
  call void @llvm.lifetime.start.p0(i64 8, ptr %14) #7
  %30 = load ptr, ptr %10, align 8, !tbaa !3
  %31 = load ptr, ptr %12, align 8, !tbaa !8
  %32 = call ptr @mi_segment_raw_page_start(ptr noundef %30, ptr noundef %31, ptr noundef %13) #8
  store ptr %32, ptr %14, align 8, !tbaa !12
  %33 = load i64, ptr %13, align 8, !tbaa !14
  %34 = load ptr, ptr %12, align 8, !tbaa !8
  %35 = getelementptr inbounds nuw %struct.mi_page_s, ptr %34, i32 0, i32 11
  store i64 %33, ptr %35, align 8, !tbaa !26
  %36 = load i64, ptr %7, align 8, !tbaa !14
  %37 = icmp ugt i64 %36, 0
  br i1 %37, label %38, label %67

38:                                               ; preds = %26
  %39 = load ptr, ptr %10, align 8, !tbaa !3
  %40 = getelementptr inbounds nuw %struct.mi_segment_s, ptr %39, i32 0, i32 1
  %41 = load i8, ptr %40, align 8, !tbaa !88, !range !30, !noundef !31
  %42 = trunc i8 %41 to i1
  br i1 %42, label %43, label %67

43:                                               ; preds = %38
  %44 = load ptr, ptr %12, align 8, !tbaa !8
  %45 = getelementptr inbounds nuw %struct.mi_page_s, ptr %44, i32 0, i32 1
  %46 = load i8, ptr %45, align 1
  %47 = lshr i8 %46, 1
  %48 = and i8 %47, 1
  %49 = zext i8 %48 to i32
  %50 = icmp ne i32 %49, 0
  br i1 %50, label %51, label %67

51:                                               ; preds = %43
  call void @llvm.lifetime.start.p0(i64 8, ptr %15) #7
  %52 = load ptr, ptr %14, align 8, !tbaa !12
  %53 = ptrtoint ptr %52 to i64
  %54 = load i64, ptr %7, align 8, !tbaa !14
  %55 = call i64 @_mi_align_up(i64 noundef %53, i64 noundef %54) #8
  %56 = inttoptr i64 %55 to ptr
  store ptr %56, ptr %15, align 8, !tbaa !12
  call void @llvm.lifetime.start.p0(i64 8, ptr %16) #7
  %57 = load ptr, ptr %14, align 8, !tbaa !12
  %58 = getelementptr inbounds nuw i8, ptr %57, i64 8
  store ptr %58, ptr %16, align 8, !tbaa !12
  call void @llvm.lifetime.start.p0(i64 8, ptr %17) #7
  %59 = load ptr, ptr %15, align 8, !tbaa !12
  %60 = load ptr, ptr %16, align 8, !tbaa !12
  %61 = ptrtoint ptr %59 to i64
  %62 = ptrtoint ptr %60 to i64
  %63 = sub i64 %61, %62
  store i64 %63, ptr %17, align 8, !tbaa !14
  %64 = load ptr, ptr %16, align 8, !tbaa !12
  %65 = load i64, ptr %17, align 8, !tbaa !14
  %66 = call zeroext i1 @_mi_os_reset(ptr noundef %64, i64 noundef %65) #8
  call void @llvm.lifetime.end.p0(i64 8, ptr %17) #7
  call void @llvm.lifetime.end.p0(i64 8, ptr %16) #7
  call void @llvm.lifetime.end.p0(i64 8, ptr %15) #7
  br label %67

67:                                               ; preds = %51, %43, %38, %26
  %68 = load ptr, ptr %12, align 8, !tbaa !8
  store ptr %68, ptr %5, align 8
  store i32 1, ptr %11, align 4
  call void @llvm.lifetime.end.p0(i64 8, ptr %14) #7
  call void @llvm.lifetime.end.p0(i64 8, ptr %13) #7
  call void @llvm.lifetime.end.p0(i64 8, ptr %12) #7
  br label %69

69:                                               ; preds = %67, %25
  call void @llvm.lifetime.end.p0(i64 8, ptr %10) #7
  %70 = load ptr, ptr %5, align 8
  ret ptr %70
}