; Function Attrs: nounwind uwtable
define internal fastcc ptr @mi_segment_huge_page_alloc(i64 noundef %0, i64 noundef %1, i32 noundef %2, ptr noundef captures(none) %3) unnamed_addr #2 {
  %5 = tail call fastcc ptr @mi_segment_alloc(i64 noundef %0, i32 noundef 3, i64 noundef 23, i64 noundef %1, i32 noundef %2, ptr noundef %3) #7
  %6 = icmp eq ptr %5, null
  br i1 %6, label %55, label %7

7:                                                ; preds = %4
  %8 = tail call fastcc ptr @mi_segment_find_free(ptr noundef %5, ptr noundef %3) #7
  %9 = getelementptr inbounds nuw i8, ptr %5, i64 152
  %10 = load i32, ptr %9, align 8, !tbaa !3
  %11 = icmp eq i32 %10, 3
  br i1 %11, label %12, label %15

12:                                               ; preds = %7
  %13 = getelementptr inbounds nuw i8, ptr %5, i64 32
  %14 = load i64, ptr %13, align 8, !tbaa !14
  br label %mi_segment_raw_page_size.exit.i

15:                                               ; preds = %7
  %16 = getelementptr inbounds nuw i8, ptr %5, i64 144
  %17 = load i64, ptr %16, align 8, !tbaa !15
  %18 = shl nuw i64 1, %17
  br label %mi_segment_raw_page_size.exit.i

mi_segment_raw_page_size.exit.i:                  ; preds = %15, %12
  %19 = phi i64 [ %14, %12 ], [ %18, %15 ]
  %20 = load i8, ptr %8, align 8, !tbaa !16
  %21 = zext i8 %20 to i64
  %22 = mul i64 %19, %21
  %23 = getelementptr inbounds nuw i8, ptr %5, i64 %22
  %24 = icmp eq i8 %20, 0
  br i1 %24, label %25, label %mi_segment_raw_page_start.exit

25:                                               ; preds = %mi_segment_raw_page_size.exit.i
  %26 = getelementptr inbounds nuw i8, ptr %5, i64 104
  %27 = load i64, ptr %26, align 8, !tbaa !22
  %28 = getelementptr inbounds nuw i8, ptr %23, i64 %27
  %29 = sub i64 %19, %27
  br label %mi_segment_raw_page_start.exit

mi_segment_raw_page_start.exit:                   ; preds = %mi_segment_raw_page_size.exit.i, %25
  %.012.i = phi i64 [ %29, %25 ], [ %19, %mi_segment_raw_page_size.exit.i ]
  %.0.i = phi ptr [ %28, %25 ], [ %23, %mi_segment_raw_page_size.exit.i ]
  %30 = getelementptr inbounds nuw i8, ptr %8, i64 32
  store i64 %.012.i, ptr %30, align 8, !tbaa !23
  %.not = icmp eq i64 %1, 0
  br i1 %.not, label %55, label %31

31:                                               ; preds = %mi_segment_raw_page_start.exit
  %32 = getelementptr inbounds nuw i8, ptr %5, i64 24
  %33 = load i8, ptr %32, align 8, !tbaa !91, !range !37, !noundef !38
  %34 = trunc nuw i8 %33 to i1
  br i1 %34, label %35, label %55

35:                                               ; preds = %31
  %36 = getelementptr inbounds nuw i8, ptr %8, i64 1
  %37 = load i8, ptr %36, align 1
  %38 = and i8 %37, 2
  %.not23 = icmp eq i8 %38, 0
  br i1 %.not23, label %55, label %39

39:                                               ; preds = %35
  %40 = ptrtoint ptr %.0.i to i64
  %41 = add i64 %1, -1
  %42 = tail call range(i64 1, 65) i64 @llvm.ctpop.i64(i64 range(i64 1, 0) %1)
  %43 = icmp samesign ult i64 %42, 2
  %44 = add i64 %41, %40
  br i1 %43, label %45, label %48

45:                                               ; preds = %39
  %46 = sub i64 0, %1
  %47 = and i64 %44, %46
  br label %_mi_align_up.exit

48:                                               ; preds = %39
  %49 = urem i64 %44, %1
  %50 = sub nuw i64 %44, %49
  br label %_mi_align_up.exit

_mi_align_up.exit:                                ; preds = %45, %48
  %.0.i24 = phi i64 [ %47, %45 ], [ %50, %48 ]
  %51 = getelementptr inbounds nuw i8, ptr %.0.i, i64 8
  %52 = ptrtoint ptr %51 to i64
  %53 = sub i64 %.0.i24, %52
  %54 = tail call zeroext i1 @_mi_os_reset(ptr noundef nonnull %51, i64 noundef %53) #8
  br label %55

55:                                               ; preds = %mi_segment_raw_page_start.exit, %31, %35, %_mi_align_up.exit, %4
  %.0 = phi ptr [ null, %4 ], [ %8, %_mi_align_up.exit ], [ %8, %35 ], [ %8, %31 ], [ %8, %mi_segment_raw_page_start.exit ]
  ret ptr %.0
}